; Function Attrs: mustprogress nofree norecurse nosync nounwind willreturn memory(read, inaccessiblemem: none) uwtable
define hidden noundef ptr @_ZNK8CodeHeap10find_startEPv(ptr nocapture noundef nonnull readonly align 8 dereferenceable(336) %0, ptr noundef %1) local_unnamed_addr #10 align 2 {
  %3 = getelementptr inbounds i8, ptr %0, i64 16
  %4 = load ptr, ptr %3, align 8
  %.not.i.i = icmp ule ptr %4, %1
  %5 = getelementptr inbounds i8, ptr %0, i64 24
  %6 = load ptr, ptr %5, align 8
  %7 = icmp ugt ptr %6, %1
  %8 = select i1 %.not.i.i, i1 %7, i1 false
  br i1 %8, label %9, label %_ZNK8CodeHeap14find_block_forEPv.exit.thread

9:                                                ; preds = %2
  %10 = getelementptr inbounds i8, ptr %0, i64 128
  %11 = load ptr, ptr %10, align 8
  %12 = ptrtoint ptr %1 to i64
  %13 = ptrtoint ptr %4 to i64
  %14 = sub i64 %12, %13
  %15 = getelementptr inbounds i8, ptr %0, i64 248
  %16 = load i32, ptr %15, align 8
  %17 = zext nneg i32 %16 to i64
  %18 = ashr i64 %14, %17
  %19 = getelementptr inbounds i8, ptr %11, i64 %18
  %20 = load i8, ptr %19, align 1
  %21 = icmp eq i8 %20, -1
  br i1 %21, label %_ZNK8CodeHeap14find_block_forEPv.exit.thread, label %.preheader.i

.preheader.i:                                     ; preds = %9, %.preheader.i
  %.0.i = phi i64 [ %25, %.preheader.i ], [ %18, %9 ]
  %22 = getelementptr inbounds i8, ptr %11, i64 %.0.i
  %23 = load i8, ptr %22, align 1
  %.not.i = icmp eq i8 %23, 0
  %24 = zext i8 %23 to i64
  %25 = sub i64 %.0.i, %24
  br i1 %.not.i, label %_ZNK8CodeHeap14find_block_forEPv.exit, label %.preheader.i, !llvm.loop !12

_ZNK8CodeHeap14find_block_forEPv.exit:            ; preds = %.preheader.i
  %26 = icmp eq ptr %4, null
  br i1 %26, label %_ZNK8CodeHeap14find_block_forEPv.exit.thread, label %27

27:                                               ; preds = %_ZNK8CodeHeap14find_block_forEPv.exit
  %28 = shl i64 %.0.i, %17
  %29 = getelementptr inbounds i8, ptr %4, i64 %28
  %30 = getelementptr inbounds i8, ptr %29, i64 4
  %31 = load i8, ptr %30, align 4
  %32 = trunc i8 %31 to i1
  %33 = getelementptr inbounds i8, ptr %29, i64 8
  %spec.select = select i1 %32, ptr %33, ptr null
  br label %_ZNK8CodeHeap14find_block_forEPv.exit.thread

_ZNK8CodeHeap14find_block_forEPv.exit.thread:     ; preds = %27, %9, %2, %_ZNK8CodeHeap14find_block_forEPv.exit
  %34 = phi ptr [ null, %_ZNK8CodeHeap14find_block_forEPv.exit ], [ null, %2 ], [ null, %9 ], [ %spec.select, %27 ]
  ret ptr %34
}